(dp0
I1
I136670847
sI2
I16435966
sI3
I6220905
sI4
I3180884
sI5
I1862728
sI6
I1183588
sI7
I801681
sI8
I567896
sI9
I416628
sI10
I315420
sI11
I246446
sI12
I195004
sI13
I157316
sI14
I129334
sI15
I108324
sI16
I90722
sI17
I77777
sI18
I67495
sI19
I58826
sI20
I51598
sI21
I45809
sI22
I40578
sI23
I36887
sI24
I33524
sI25
I30354
sI26
I27895
sI27
I25376
sI28
I23732
sI29
I21782
sI30
I20464
sI31
I19166
sI32
I17943
sI33
I17184
sI34
I16066
sI35
I15090
sI36
I14308
sI37
I13649
sI38
I12774
sI39
I12644
sI40
I12134
sI41
I11384
sI42
I11096
sI43
I10669
sI44
I10297
sI45
I9917
sI46
I9745
sI47
I9216
sI48
I8939
sI49
I8707
sI50
I8629
sI51
I8427
sI52
I8304
sI53
I7902
sI54
I8080
sI55
I7767
sI56
I7685
sI57
I7409
sI58
I7425
sI59
I7239
sI60
I7103
sI61
I7107
sI62
I6930
sI63
I6746
sI64
I6727
sI65
I6645
sI66
I6688
sI67
I6592
sI68
I6441
sI69
I6289
sI70
I6142
sI71
I6139
sI72
I6310
sI73
I6034
sI74
I6039
sI75
I5969
sI76
I5861
sI77
I6023
sI78
I5808
sI79
I5801
sI80
I5719
sI81
I5457
sI82
I5518
sI83
I5446
sI84
I5353
sI85
I5482
sI86
I5433
sI87
I5270
sI88
I5056
sI89
I5055
sI90
I5072
sI91
I4963
sI92
I4895
sI93
I4971
sI94
I4821
sI95
I4627
sI96
I4710
sI97
I4456
sI98
I4465
sI99
I4417
sI100
I4386
sI101
I4418
sI102
I4353
sI103
I4166
sI104
I4194
sI105
I3992
sI106
I4045
sI107
I3902
sI108
I3925
sI109
I3809
sI110
I3697
sI111
I3691
sI112
I3531
sI113
I3571
sI114
I3379
sI115
I3458
sI116
I3397
sI117
I3355
sI118
I3213
sI119
I3288
sI120
I3114
sI121
I3053
sI122
I2853
sI123
I2914
sI124
I2834
sI125
I2784
sI126
I2706
sI127
I2693
sI128
I2614
sI129
I2565
sI130
I2555
sI131
I2438
sI132
I2340
sI133
I2357
sI134
I2280
sI135
I2150
sI136
I2243
sI137
I2119
sI138
I2008
sI139
I2050
sI140
I1966
sI141
I1924
sI142
I1847
sI143
I1797
sI144
I1760
sI145
I1709
sI146
I1666
sI147
I1662
sI148
I1504
sI149
I1526
sI150
I1464
sI151
I1486
sI152
I1408
sI153
I1395
sI154
I1351
sI155
I1402
sI156
I1275
sI157
I1215
sI158
I1189
sI159
I1213
sI160
I1111
sI161
I1058
sI162
I1109
sI163
I982
sI164
I966
sI165
I978
sI166
I862
sI167
I885
sI168
I906
sI169
I826
sI170
I804
sI171
I757
sI172
I800
sI173
I671
sI174
I736
sI175
I707
sI176
I682
sI177
I614
sI178
I586
sI179
I628
sI180
I560
sI181
I546
sI182
I547
sI183
I513
sI184
I468
sI185
I513
sI186
I440
sI187
I420
sI188
I438
sI189
I457
sI190
I424
sI191
I396
sI192
I397
sI193
I334
sI194
I335
sI195
I344
sI196
I313
sI197
I278
sI198
I280
sI199
I255
sI200
I264
sI201
I229
sI202
I226
sI203
I243
sI204
I230
sI205
I209
sI206
I188
sI207
I203
sI208
I181
sI209
I159
sI210
I162
sI211
I150
sI212
I152
sI213
I159
sI214
I130
sI215
I147
sI216
I132
sI217
I113
sI218
I103
sI219
I115
sI220
I86
sI221
I100
sI222
I121
sI223
I95
sI224
I76
sI225
I79
sI226
I69
sI227
I81
sI228
I77
sI229
I65
sI230
I51
sI231
I51
sI232
I52
sI233
I58
sI234
I51
sI235
I52
sI236
I43
sI237
I64
sI238
I35
sI239
I44
sI240
I50
sI241
I38
sI242
I36
sI243
I34
sI244
I28
sI245
I33
sI246
I31
sI247
I29
sI248
I29
sI249
I19
sI250
I21
sI251
I31
sI252
I23
sI253
I21
sI254
I18
sI255
I18
sI256
I21
sI257
I20
sI258
I16
sI259
I16
sI260
I23
sI261
I20
sI262
I17
sI263
I11
sI264
I17
sI265
I4
sI266
I12
sI267
I14
sI268
I13
sI269
I8
sI270
I11
sI271
I9
sI272
I11
sI273
I6
sI274
I3
sI275
I9
sI276
I6
sI277
I9
sI278
I8
sI279
I6
sI280
I5
sI281
I6
sI282
I5
sI283
I6
sI284
I6
sI285
I5
sI286
I3
sI287
I5
sI288
I6
sI289
I3
sI290
I7
sI291
I7
sI292
I2
sI293
I6
sI294
I3
sI295
I1
sI296
I1
sI297
I6
sI298
I3
sI299
I4
sI300
I4
sI302
I3
sI733
I1
sI304
I2
sI305
I2
sI306
I1
sI8243
I1
sI308
I2
sI309
I1
sI312
I5
sI314
I1
sI315
I2
sI316
I1
sI317
I1
sI4414
I1
sI320
I1
sI321
I2
sI324
I2
sI8246
I1
sI326
I2
sI328
I2
sI331
I4
sI332
I1
sI335
I2
sI337
I1
sI338
I2
sI340
I1
sI341
I1
sI342
I4
sI343
I4
sI344
I1
sI345
I1
sI347
I1
sI349
I2
sI351
I2
sI352
I1
sI353
I2
sI354
I1
sI357
I1
sI358
I1
sI360
I1
sI366
I1
sI367
I1
sI370
I1
sI372
I2
sI373
I1
sI376
I2
sI378
I1
sI379
I2
sI380
I1
sI381
I1
sI382
I1
sI383
I1
sI385
I1
sI387
I1
sI390
I1
sI391
I1
sI396
I1
sI400
I1
sI402
I1
sI403
I2
sI408
I1
sI410
I1
sI417
I2
sI418
I1
sI423
I1
sI424
I1
sI427
I1
sI428
I1
sI433
I2
sI439
I1
sI441
I1
sI2494
I1
sI447
I1
sI448
I1
sI449
I1
sI451
I1
sI452
I1
sI2507
I1
sI460
I1
sI463
I1
sI465
I3
sI473
I1
sI12359
I1
sI488
I1
sI25071
I1
sI497
I1
sI498
I3
sI505
I1
sI511
I2
sI514
I1
sI521
I1
sI532
I1
sI535
I1
sI544
I1
sI2593
I1
sI2601
I1
sI581
I1
sI583
I1
sI589
I1
sI592
I1
sI14930
I1
sI603
I1
sI613
I1
sI446
I1
sI2679
I1
sI646
I1
sI6795
I1
sI676
I1
sI680
I1
sI685
I1
sI693
I1
sI701
I1
sI716
I1
sI732
I1
sI8925
I1
sI752
I1
sI760
I1
sI766
I1
sI779
I1
sI780
I1
sI799
I1
sI803
I1
sI814
I1
sI2863
I1
sI10376
I1
sI818
I1
sI838
I1
sI841
I1
sI2198
I1
sI13191
I1
sI912
I1
sI303
I3
sI495
I2
sI926
I1
sI950
I1
sI3028
I1
sI983
I1
sI992
I1
sI1003
I1
sI5108
I1
sI2217
I1
sI3068
I1
sI4303
I1
sI1044
I1
sI1054
I1
sI1084
I1
sI1093
I1
sI1126
I1
sI5257
I1
sI1193
I1
sI545
I1
sI3279
I1
sI1233
I1
sI2255
I1
sI18644
I1
sI3328
I1
sI1281
I1
sI3376
I1
sI5472
I1
sI6374
I1
sI1401
I1
sI3457
I1
sI1421
I1
sI1426
I1
sI1444
I1
sI3498
I1
sI5549
I1
sI15823
I1
sI594
I1
sI1548
I1
sI1569
I1
sI1578
I1
sI1654
I1
sI1672
I1
sI1720
I1
sI1730
I1
sI1793
I1
sI1819
I1
sI307
I2
sI1898
I1
sI10098
I1
sI318
I3
sI3985
I1
sI325
I2
sI6060
I1
sI10164
I1
sI2007
I1
sI8154
I1
sI2013
I1
s.