(dp0
I1
I140536627
sI2
I369860
sI3
I59512
sI4
I22310
sI5
I10683
sI6
I5938
sI7
I3784
sI8
I2588
sI9
I1876
sI10
I1464
sI11
I1092
sI12
I904
sI13
I755
sI14
I659
sI15
I592
sI16
I530
sI17
I432
sI18
I386
sI19
I342
sI20
I319
sI21
I295
sI22
I243
sI23
I266
sI24
I219
sI25
I171
sI26
I168
sI27
I161
sI28
I153
sI29
I163
sI30
I151
sI31
I138
sI32
I117
sI33
I104
sI34
I98
sI35
I103
sI36
I93
sI37
I92
sI38
I88
sI39
I85
sI40
I65
sI41
I64
sI42
I59
sI43
I56
sI44
I55
sI45
I47
sI46
I57
sI47
I54
sI48
I47
sI49
I39
sI50
I46
sI51
I38
sI52
I46
sI53
I38
sI54
I42
sI55
I34
sI56
I29
sI57
I45
sI58
I45
sI59
I46
sI60
I38
sI61
I29
sI62
I21
sI63
I27
sI64
I33
sI65
I25
sI66
I29
sI67
I26
sI68
I28
sI69
I14
sI70
I20
sI71
I20
sI72
I21
sI73
I26
sI74
I16
sI75
I22
sI76
I25
sI77
I24
sI78
I18
sI79
I10
sI80
I12
sI81
I17
sI82
I16
sI83
I23
sI84
I13
sI85
I12
sI86
I11
sI87
I15
sI88
I18
sI89
I13
sI90
I13
sI91
I10
sI92
I14
sI93
I15
sI94
I8
sI95
I5
sI96
I11
sI97
I12
sI98
I9
sI99
I12
sI100
I13
sI2149
I1
sI102
I1
sI103
I4
sI104
I4
sI105
I11
sI106
I6
sI107
I7
sI108
I7
sI109
I5
sI110
I7
sI111
I4
sI112
I2
sI113
I10
sI114
I3
sI115
I8
sI116
I7
sI117
I5
sI118
I5
sI119
I8
sI120
I4
sI121
I4
sI122
I2
sI123
I5
sI124
I6
sI125
I1
sI126
I3
sI127
I7
sI128
I3
sI129
I1
sI130
I4
sI131
I1
sI132
I4
sI133
I2
sI134
I2
sI135
I1
sI136
I3
sI137
I1
sI138
I2
sI139
I3
sI140
I1
sI141
I1
sI142
I1
sI143
I1
sI144
I4
sI145
I2
sI146
I1
sI147
I3
sI148
I5
sI149
I4
sI150
I4
sI151
I1
sI152
I2
sI153
I1
sI154
I2
sI155
I1
sI157
I2
sI158
I1
sI159
I3
sI160
I1
sI162
I2
sI163
I1
sI164
I6
sI165
I2
sI166
I1
sI167
I3
sI168
I3
sI169
I4
sI171
I2
sI172
I2
sI173
I4
sI174
I1
sI175
I5
sI176
I1
sI177
I5
sI178
I1
sI179
I3
sI180
I2
sI181
I2
sI182
I2
sI183
I5
sI184
I3
sI185
I2
sI186
I3
sI187
I2
sI188
I2
sI189
I3
sI191
I1
sI192
I1
sI193
I1
sI194
I3
sI197
I1
sI198
I2
sI199
I1
sI200
I2
sI201
I3
sI202
I2
sI203
I3
sI205
I2
sI207
I1
sI208
I3
sI209
I4
sI210
I1
sI213
I3
sI214
I2
sI216
I2
sI217
I2
sI218
I3
sI220
I2
sI222
I1
sI223
I1
sI224
I2
sI4321
I1
sI226
I1
sI2276
I1
sI229
I2
sI230
I2
sI232
I1
sI233
I3
sI235
I4
sI236
I1
sI237
I2
sI238
I1
sI242
I3
sI243
I1
sI245
I1
sI246
I1
sI250
I2
sI252
I2
sI254
I2
sI255
I1
sI257
I2
sI262
I2
sI263
I3
sI264
I2
sI265
I1
sI267
I1
sI269
I1
sI270
I1
sI271
I2
sI272
I3
sI273
I2
sI276
I1
sI278
I1
sI279
I1
sI280
I2
sI281
I1
sI282
I2
sI283
I1
sI286
I1
sI288
I1
sI289
I1
sI292
I1
sI293
I2
sI294
I2
sI295
I2
sI296
I1
sI297
I1
sI299
I1
sI300
I1
sI2349
I1
sI303
I1
sI308
I2
sI311
I2
sI312
I1
sI313
I1
sI314
I2
sI315
I1
sI316
I1
sI317
I2
sI318
I1
sI319
I2
sI322
I1
sI325
I1
sI326
I1
sI331
I1
sI334
I1
sI335
I1
sI337
I2
sI338
I1
sI342
I1
sI343
I2
sI344
I2
sI345
I1
sI347
I1
sI356
I1
sI357
I1
sI358
I2
sI359
I1
sI360
I1
sI361
I1
sI362
I1
sI369
I1
sI371
I1
sI372
I1
sI4472
I1
sI377
I1
sI380
I1
sI393
I1
sI394
I1
sI395
I1
sI396
I1
sI398
I1
sI400
I1
sI405
I1
sI407
I1
sI410
I2
sI416
I1
sI419
I1
sI425
I1
sI427
I1
sI433
I1
sI434
I1
sI435
I1
sI436
I1
sI437
I1
sI439
I1
sI2488
I1
sI448
I1
sI449
I1
sI455
I1
sI457
I1
sI460
I1
sI462
I1
sI464
I1
sI465
I1
sI469
I1
sI2127
I1
sI480
I1
sI483
I2
sI486
I1
sI489
I1
sI502
I1
sI2556
I1
sI521
I1
sI526
I1
sI532
I1
sI2581
I1
sI537
I2
sI568
I1
sI569
I1
sI575
I1
sI6721
I1
sI2630
I1
sI597
I1
sI600
I1
sI602
I1
sI605
I1
sI606
I1
sI101
I2
sI611
I1
sI614
I1
sI2664
I1
sI618
I1
sI627
I2
sI629
I1
sI634
I1
sI644
I1
sI647
I1
sI648
I1
sI652
I1
sI654
I1
sI2713
I1
sI675
I1
sI676
I1
sI691
I2
sI694
I1
sI703
I1
sI710
I1
sI4808
I1
sI6946
I1
sI720
I2
sI2168
I1
sI725
I1
sI731
I1
sI732
I1
sI742
I1
sI757
I1
sI765
I1
sI768
I1
sI784
I1
sI790
I1
sI802
I1
sI803
I1
sI808
I1
sI839
I1
sI2890
I1
sI4954
I1
sI2921
I1
sI912
I1
sI915
I1
sI922
I1
sI923
I1
sI935
I1
sI9217
I1
sI1030
I1
sI1036
I1
sI1039
I1
sI1040
I2
sI1052
I1
sI858
I1
sI1055
I1
sI1061
I1
sI1076
I1
sI1134
I1
sI1194
I1
sI1195
I1
sI1241
I1
sI1272
I1
sI1274
I1
sI1313
I1
sI1321
I1
sI1329
I2
sI1367
I1
sI15748
I1
sI577
I2
sI1418
I1
sI5531
I1
sI3523
I1
sI1482
I1
sI1509
I1
sI1522
I1
sI1602
I1
sI5711
I1
sI9837
I1
sI1647
I1
sI1648
I1
sI1692
I1
sI1706
I1
sI1713
I1
sI2343
I1
sI3826
I1
sI1806
I1
sI301
I1
sI1826
I1
sI3924
I1
sI1877
I1
sI1883
I1
sI1887
I1
sI1888
I1
sI1905
I1
sI3981
I1
sI1939
I1
sI665
I2
s.